; Function Attrs: nounwind uwtable
define internal noundef i64 @stdio_write(ptr noundef readonly captures(none) %0, ptr noundef readonly captures(none) %1, i64 noundef %2, ptr noundef writeonly captures(none) %3) #0 {
  %5 = load ptr, ptr %0, align 8
  %6 = tail call i64 @fwrite(ptr noundef %1, i64 noundef 1, i64 noundef %2, ptr noundef %5)
  %7 = icmp eq i64 %6, 0
  br i1 %7, label %8, label %20

8:                                                ; preds = %4
  %9 = load ptr, ptr %0, align 8
  %10 = tail call i32 @ferror(ptr noundef %9) #18
  %.not = icmp eq i32 %10, 0
  br i1 %.not, label %20, label %11

11:                                               ; preds = %8
  %12 = tail call ptr @__errno_location() #19
  %13 = load i32, ptr %12, align 4
  %14 = icmp eq i32 %13, 11
  br i1 %14, label %15, label %17

15:                                               ; preds = %11
  store i32 3, ptr %3, align 4
  %16 = load ptr, ptr %0, align 8
  tail call void @clearerr(ptr noundef %16) #18
  br label %20

17:                                               ; preds = %11
  %18 = tail call ptr @strerror(i32 noundef %13) #18
  %19 = tail call zeroext i1 (ptr, ...) @SDL_SetError_REAL(ptr noundef nonnull @.str.22, ptr noundef %18) #18
  br label %20

20:                                               ; preds = %15, %17, %8, %4
  ret i64 %6
}